target datalayout = "e-m:e-p270:32:32-p271:32:32-p272:64:64-i64:64-i128:128-f80:128-n8:16:32:64-S128"
target triple = "x86_64-pc-linux-gnu"

%struct.PJconsts = type { ptr, ptr, ptr, ptr, ptr, ptr, ptr, ptr, ptr, ptr, ptr, ptr, i32, ptr, ptr, ptr, ptr, ptr, ptr, ptr, ptr, double, double, double, double, double, double, double, double, double, double, double, double, double, double, double, double, double, double, double, double, double, double, i32, i32, i32, i32, i32, i32, i32, i32, i32, i32, i32, ptr, ptr, ptr, ptr, ptr, ptr, double, double, double, double, double, double, double, double, double, double, double, i32, [7 x double], i32, ptr, ptr, double, double, i32, [4 x i8], %"class.std::shared_ptr", i8, double, i8, %"class.std::__cxx11::basic_string", %"class.std::__cxx11::basic_string", %"class.std::__cxx11::basic_string", i8, %"class.std::vector", i32, %"class.std::vector.3", i32, i8, i8, i8, ptr }
%"class.std::shared_ptr" = type { %"class.std::__shared_ptr" }
%"class.std::__shared_ptr" = type { ptr, %"class.std::__shared_count" }
%"class.std::__shared_count" = type { ptr }
%"class.std::__cxx11::basic_string" = type { %"struct.std::__cxx11::basic_string<char>::_Alloc_hider", i64, %union.anon }
%"struct.std::__cxx11::basic_string<char>::_Alloc_hider" = type { ptr }
%union.anon = type { i64, [8 x i8] }
%"class.std::vector" = type { %"struct.std::_Vector_base" }
%"struct.std::_Vector_base" = type { %"struct.std::_Vector_base<osgeo::proj::operation::GridDescription, std::allocator<osgeo::proj::operation::GridDescription>>::_Vector_impl" }
%"struct.std::_Vector_base<osgeo::proj::operation::GridDescription, std::allocator<osgeo::proj::operation::GridDescription>>::_Vector_impl" = type { %"struct.std::_Vector_base<osgeo::proj::operation::GridDescription, std::allocator<osgeo::proj::operation::GridDescription>>::_Vector_impl_data" }
%"struct.std::_Vector_base<osgeo::proj::operation::GridDescription, std::allocator<osgeo::proj::operation::GridDescription>>::_Vector_impl_data" = type { ptr, ptr, ptr }
%"class.std::vector.3" = type { %"struct.std::_Vector_base.4" }
%"struct.std::_Vector_base.4" = type { %"struct.std::_Vector_base<PJCoordOperation, std::allocator<PJCoordOperation>>::_Vector_impl" }
%"struct.std::_Vector_base<PJCoordOperation, std::allocator<PJCoordOperation>>::_Vector_impl" = type { %"struct.std::_Vector_base<PJCoordOperation, std::allocator<PJCoordOperation>>::_Vector_impl_data" }
%"struct.std::_Vector_base<PJCoordOperation, std::allocator<PJCoordOperation>>::_Vector_impl_data" = type { ptr, ptr, ptr }
%union.PROJVALUE = type { double }
%"struct.(anonymous namespace)::pj_aea" = type { double, double, double, double, double, double, double, double, double, ptr, i32 }

@_ZL7des_aea = internal constant [48 x i8] c"Albers Equal Area\0A\09Conic Sph&Ell\0A\09lat_1= lat_2=\00", align 16
@.str = private unnamed_addr constant [4 x i8] c"aea\00", align 1
@.str.1 = private unnamed_addr constant [7 x i8] c"rlat_1\00", align 1
@.str.2 = private unnamed_addr constant [7 x i8] c"rlat_2\00", align 1

; Function Attrs: mustprogress uwtable
define hidden noundef ptr @_Z32pj_projection_specific_setup_aeaP8PJconsts(ptr noundef %0) #0 {
  %2 = alloca ptr, align 8
  %3 = alloca ptr, align 8
  %4 = alloca ptr, align 8
  %5 = alloca i32, align 4
  %6 = alloca %union.PROJVALUE, align 8
  %7 = alloca %union.PROJVALUE, align 8
  store ptr %0, ptr %3, align 8, !tbaa !3
  call void @llvm.lifetime.start.p0(i64 8, ptr %4) #8
  %8 = call noalias ptr @calloc(i64 noundef 1, i64 noundef 88) #9
  store ptr %8, ptr %4, align 8, !tbaa !41
  %9 = load ptr, ptr %4, align 8, !tbaa !41
  %10 = icmp eq ptr null, %9
  br i1 %10, label %11, label %14

11:                                               ; preds = %1
  %12 = load ptr, ptr %3, align 8, !tbaa !3
  %13 = call noundef ptr @_Z21pj_default_destructorP8PJconstsi(ptr noundef %12, i32 noundef 4096)
  store ptr %13, ptr %2, align 8
  store i32 1, ptr %5, align 4
  br label %44

14:                                               ; preds = %1
  %15 = load ptr, ptr %4, align 8, !tbaa !41
  %16 = load ptr, ptr %3, align 8, !tbaa !3
  %17 = getelementptr inbounds nuw %struct.PJconsts, ptr %16, i32 0, i32 11
  store ptr %15, ptr %17, align 8, !tbaa !43
  %18 = load ptr, ptr %3, align 8, !tbaa !3
  %19 = getelementptr inbounds nuw %struct.PJconsts, ptr %18, i32 0, i32 19
  store ptr @_ZL17pj_aea_destructorP8PJconstsi, ptr %19, align 8, !tbaa !44
  call void @llvm.lifetime.start.p0(i64 8, ptr %6) #8
  %20 = load ptr, ptr %3, align 8, !tbaa !3
  %21 = getelementptr inbounds nuw %struct.PJconsts, ptr %20, i32 0, i32 0
  %22 = load ptr, ptr %21, align 8, !tbaa !45
  %23 = load ptr, ptr %3, align 8, !tbaa !3
  %24 = getelementptr inbounds nuw %struct.PJconsts, ptr %23, i32 0, i32 3
  %25 = load ptr, ptr %24, align 8, !tbaa !46
  %26 = call i64 @_Z8pj_paramP6pj_ctxP8ARG_listPKc(ptr noundef %22, ptr noundef %25, ptr noundef @.str.1)
  %27 = getelementptr inbounds nuw %union.PROJVALUE, ptr %6, i32 0, i32 0
  store i64 %26, ptr %27, align 8
  %28 = load double, ptr %6, align 8, !tbaa !47
  %29 = load ptr, ptr %4, align 8, !tbaa !41
  %30 = getelementptr inbounds nuw %"struct.(anonymous namespace)::pj_aea", ptr %29, i32 0, i32 7
  store double %28, ptr %30, align 8, !tbaa !48
  call void @llvm.lifetime.end.p0(i64 8, ptr %6) #8
  call void @llvm.lifetime.start.p0(i64 8, ptr %7) #8
  %31 = load ptr, ptr %3, align 8, !tbaa !3
  %32 = getelementptr inbounds nuw %struct.PJconsts, ptr %31, i32 0, i32 0
  %33 = load ptr, ptr %32, align 8, !tbaa !45
  %34 = load ptr, ptr %3, align 8, !tbaa !3
  %35 = getelementptr inbounds nuw %struct.PJconsts, ptr %34, i32 0, i32 3
  %36 = load ptr, ptr %35, align 8, !tbaa !46
  %37 = call i64 @_Z8pj_paramP6pj_ctxP8ARG_listPKc(ptr noundef %33, ptr noundef %36, ptr noundef @.str.2)
  %38 = getelementptr inbounds nuw %union.PROJVALUE, ptr %7, i32 0, i32 0
  store i64 %37, ptr %38, align 8
  %39 = load double, ptr %7, align 8, !tbaa !47
  %40 = load ptr, ptr %4, align 8, !tbaa !41
  %41 = getelementptr inbounds nuw %"struct.(anonymous namespace)::pj_aea", ptr %40, i32 0, i32 8
  store double %39, ptr %41, align 8, !tbaa !51
  call void @llvm.lifetime.end.p0(i64 8, ptr %7) #8
  %42 = load ptr, ptr %3, align 8, !tbaa !3
  %43 = call noundef ptr @_ZL5setupP8PJconsts(ptr noundef %42)
  store ptr %43, ptr %2, align 8
  store i32 1, ptr %5, align 4
  br label %44

44:                                               ; preds = %14, %11
  call void @llvm.lifetime.end.p0(i64 8, ptr %4) #8
  %45 = load ptr, ptr %2, align 8
  ret ptr %45
}

; Function Attrs: mustprogress uwtable
define hidden ptr @pj_aea(ptr noundef %0) #0 {
  %2 = alloca ptr, align 8
  %3 = alloca ptr, align 8
  store ptr %0, ptr %3, align 8, !tbaa !3
  %4 = load ptr, ptr %3, align 8, !tbaa !3
  %5 = icmp ne ptr %4, null
  br i1 %5, label %6, label %9

6:                                                ; preds = %1
  %7 = load ptr, ptr %3, align 8, !tbaa !3
  %8 = call noundef ptr @_Z32pj_projection_specific_setup_aeaP8PJconsts(ptr noundef %7)
  store ptr %8, ptr %2, align 8
  br label %26

9:                                                ; preds = %1
  %10 = call noundef ptr @_Z6pj_newv()
  store ptr %10, ptr %3, align 8, !tbaa !3
  %11 = load ptr, ptr %3, align 8, !tbaa !3
  %12 = icmp eq ptr null, %11
  br i1 %12, label %13, label %14

13:                                               ; preds = %9
  store ptr null, ptr %2, align 8
  br label %26

14:                                               ; preds = %9
  %15 = load ptr, ptr %3, align 8, !tbaa !3
  %16 = getelementptr inbounds nuw %struct.PJconsts, ptr %15, i32 0, i32 1
  store ptr @.str, ptr %16, align 8, !tbaa !8
  %17 = load ptr, ptr %3, align 8, !tbaa !3
  %18 = getelementptr inbounds nuw %struct.PJconsts, ptr %17, i32 0, i32 2
  store ptr @_ZL7des_aea, ptr %18, align 8, !tbaa !37
  %19 = load ptr, ptr %3, align 8, !tbaa !3
  %20 = getelementptr inbounds nuw %struct.PJconsts, ptr %19, i32 0, i32 47
  store i32 1, ptr %20, align 8, !tbaa !38
  %21 = load ptr, ptr %3, align 8, !tbaa !3
  %22 = getelementptr inbounds nuw %struct.PJconsts, ptr %21, i32 0, i32 52
  store i32 4, ptr %22, align 4, !tbaa !39
  %23 = load ptr, ptr %3, align 8, !tbaa !3
  %24 = getelementptr inbounds nuw %struct.PJconsts, ptr %23, i32 0, i32 53
  store i32 1, ptr %24, align 8, !tbaa !40
  %25 = load ptr, ptr %3, align 8, !tbaa !3
  store ptr %25, ptr %2, align 8
  br label %26

26:                                               ; preds = %14, %13, %6
  %27 = load ptr, ptr %2, align 8
  ret ptr %27
}