; Function Attrs: mustprogress uwtable
define hidden noundef ptr @pj_aea(ptr noundef %0) local_unnamed_addr #0 {
  %.not = icmp eq ptr %0, null
  br i1 %.not, label %20, label %2

2:                                                ; preds = %1
  %3 = tail call noalias dereferenceable_or_null(88) ptr @calloc(i64 noundef 1, i64 noundef 88) #6
  %4 = icmp eq ptr %3, null
  br i1 %4, label %5, label %7

5:                                                ; preds = %2
  %6 = tail call noundef ptr @_Z21pj_default_destructorP8PJconstsi(ptr noundef nonnull %0, i32 noundef 4096)
  br label %_Z32pj_projection_specific_setup_aeaP8PJconsts.exit

7:                                                ; preds = %2
  %8 = getelementptr inbounds nuw i8, ptr %0, i64 88
  store ptr %3, ptr %8, align 8, !tbaa !3
  %9 = getelementptr inbounds nuw i8, ptr %0, i64 152
  store ptr @_ZL17pj_aea_destructorP8PJconstsi, ptr %9, align 8, !tbaa !36
  %10 = load ptr, ptr %0, align 8, !tbaa !37
  %11 = getelementptr inbounds nuw i8, ptr %0, i64 24
  %12 = load ptr, ptr %11, align 8, !tbaa !38
  %13 = tail call i64 @_Z8pj_paramP6pj_ctxP8ARG_listPKc(ptr noundef %10, ptr noundef %12, ptr noundef nonnull @.str.1)
  %14 = getelementptr inbounds nuw i8, ptr %3, i64 56
  store i64 %13, ptr %14, align 8, !tbaa !39
  %15 = load ptr, ptr %0, align 8, !tbaa !37
  %16 = load ptr, ptr %11, align 8, !tbaa !38
  %17 = tail call i64 @_Z8pj_paramP6pj_ctxP8ARG_listPKc(ptr noundef %15, ptr noundef %16, ptr noundef nonnull @.str.2)
  %18 = getelementptr inbounds nuw i8, ptr %3, i64 64
  store i64 %17, ptr %18, align 8, !tbaa !42
  %19 = tail call fastcc noundef ptr @_ZL5setupP8PJconsts(ptr noundef nonnull %0)
  br label %_Z32pj_projection_specific_setup_aeaP8PJconsts.exit

20:                                               ; preds = %1
  %21 = tail call noundef ptr @_Z6pj_newv()
  %22 = icmp eq ptr %21, null
  br i1 %22, label %_Z32pj_projection_specific_setup_aeaP8PJconsts.exit, label %23

23:                                               ; preds = %20
  %24 = getelementptr inbounds nuw i8, ptr %21, i64 8
  store ptr @.str, ptr %24, align 8, !tbaa !43
  %25 = getelementptr inbounds nuw i8, ptr %21, i64 16
  store ptr @_ZL7des_aea, ptr %25, align 8, !tbaa !44
  %26 = getelementptr inbounds nuw i8, ptr %21, i64 360
  store i32 1, ptr %26, align 8, !tbaa !45
  %27 = getelementptr inbounds nuw i8, ptr %21, i64 380
  store i32 4, ptr %27, align 4, !tbaa !46
  %28 = getelementptr inbounds nuw i8, ptr %21, i64 384
  store i32 1, ptr %28, align 8, !tbaa !47
  br label %_Z32pj_projection_specific_setup_aeaP8PJconsts.exit

_Z32pj_projection_specific_setup_aeaP8PJconsts.exit: ; preds = %7, %5, %20, %23
  %.0 = phi ptr [ %21, %23 ], [ null, %20 ], [ %6, %5 ], [ %19, %7 ]
  ret ptr %.0
}